; Function Attrs: nounwind uwtable
define ptr @l_Lean_Elab_checkNotAlreadyDeclared___rarg___lambda__1(ptr noundef %0, ptr noundef %1, ptr noundef %2, ptr noundef %3) #0 {
  tail call void @lean_inc_heartbeat() #7
  %5 = tail call noalias ptr @mi_malloc_small(i64 noundef 24) #7
  %6 = icmp eq ptr %5, null
  br i1 %6, label %7, label %lean_alloc_ctor.exit

7:                                                ; preds = %4
  tail call void @lean_internal_panic_out_of_memory() #8
  unreachable

lean_alloc_ctor.exit:                             ; preds = %4
  %8 = getelementptr inbounds nuw i8, ptr %5, i64 4
  store i32 1, ptr %5, align 4, !tbaa !4
  store i32 131096, ptr %8, align 4
  %9 = getelementptr inbounds nuw i8, ptr %5, i64 8
  store ptr inttoptr (i64 1 to ptr), ptr %9, align 8, !tbaa !9
  %10 = getelementptr inbounds nuw i8, ptr %5, i64 16
  store ptr %0, ptr %10, align 8, !tbaa !9
  %11 = load ptr, ptr @l_Lean_Elab_checkNotAlreadyDeclared___rarg___lambda__1___closed__6, align 8, !tbaa !9
  tail call void @lean_inc_heartbeat() #7
  %12 = tail call noalias ptr @mi_malloc_small(i64 noundef 48) #7
  %13 = icmp eq ptr %12, null
  br i1 %13, label %14, label %lean_alloc_ctor.exit19

14:                                               ; preds = %lean_alloc_ctor.exit
  tail call void @lean_internal_panic_out_of_memory() #8
  unreachable

lean_alloc_ctor.exit19:                           ; preds = %lean_alloc_ctor.exit
  %15 = getelementptr inbounds nuw i8, ptr %12, i64 4
  %16 = getelementptr inbounds nuw i8, ptr %12, i64 40
  store i64 0, ptr %16, align 8, !tbaa !11
  store i32 1, ptr %12, align 4, !tbaa !4
  store i32 262192, ptr %15, align 4
  %17 = getelementptr inbounds nuw i8, ptr %12, i64 8
  store ptr %5, ptr %17, align 8, !tbaa !9
  %18 = getelementptr inbounds nuw i8, ptr %12, i64 16
  store ptr %11, ptr %18, align 8, !tbaa !9
  %19 = getelementptr inbounds nuw i8, ptr %12, i64 24
  store ptr inttoptr (i64 1 to ptr), ptr %19, align 8, !tbaa !9
  %20 = getelementptr inbounds nuw i8, ptr %12, i64 32
  store ptr %3, ptr %20, align 8, !tbaa !9
  tail call void @lean_inc_heartbeat() #7
  %21 = tail call noalias ptr @mi_malloc_small(i64 noundef 16) #7
  %22 = icmp eq ptr %21, null
  br i1 %22, label %23, label %lean_alloc_ctor.exit20

23:                                               ; preds = %lean_alloc_ctor.exit19
  tail call void @lean_internal_panic_out_of_memory() #8
  unreachable

lean_alloc_ctor.exit20:                           ; preds = %lean_alloc_ctor.exit19
  %24 = getelementptr inbounds nuw i8, ptr %21, i64 4
  store i32 1, ptr %21, align 4, !tbaa !4
  store i32 16842768, ptr %24, align 4
  %25 = getelementptr inbounds nuw i8, ptr %21, i64 8
  store ptr %12, ptr %25, align 8, !tbaa !9
  %26 = tail call ptr @l_Lean_Elab_pushInfoLeaf___rarg(ptr noundef %1, ptr noundef %2, ptr noundef nonnull %21) #7
  ret ptr %26
}